; Function Attrs: nounwind uwtable
define ptr @arkStep_GetMassMem(ptr noundef %0) #0 {
  %2 = getelementptr inbounds nuw i8, ptr %0, i64 136
  %3 = load ptr, ptr %2, align 8, !tbaa !77
  %4 = icmp eq ptr %3, null
  br i1 %4, label %arkStep_AccessStepMem.exit, label %5

arkStep_AccessStepMem.exit:                       ; preds = %1
  tail call void (ptr, i32, i32, ptr, ptr, ptr, ...) @arkProcessError(ptr noundef nonnull %0, i32 noundef -21, i32 noundef 2165, ptr noundef nonnull @__func__.arkStep_GetMassMem, ptr noundef nonnull @.str, ptr noundef nonnull @.str.57) #13
  br label %8

5:                                                ; preds = %1
  %6 = getelementptr inbounds nuw i8, ptr %3, i64 368
  %7 = load ptr, ptr %6, align 8, !tbaa !109
  br label %8

8:                                                ; preds = %arkStep_AccessStepMem.exit, %5
  %.0 = phi ptr [ %7, %5 ], [ null, %arkStep_AccessStepMem.exit ]
  ret ptr %.0
}